(dp0
S'now'
p1
S'2012-11-10 21:25:16'
p2
sS'args'
p3
ccopy_reg
_reconstructor
p4
(cargparse
Namespace
p5
c__builtin__
object
p6
Ntp7
Rp8
(dp9
S'popstep'
p10
I10
sS'popmax'
p11
I11
sS'cont'
p12
NsS'splits'
p13
I5
sS'genmin'
p14
I5
sS'popmin'
p15
I11
sS'genstep'
p16
I2
sS'genmax'
p17
I5
sS'datasets'
p18
(lp19
S'protein'
p20
asS'xmx'
p21
I4000
sS'errors'
p22
I00
sS'append'
p23
Nsbs.