(dp0
S'now'
p1
S'2012-10-16 00:40:44'
p2
sS'args'
p3
ccopy_reg
_reconstructor
p4
(cargparse
Namespace
p5
c__builtin__
object
p6
Ntp7
Rp8
(dp9
S'popstep'
p10
I10
sS'popmax'
p11
I101
sS'cont'
p12
NsS'splits'
p13
I10
sS'genstep'
p14
I2
sS'datasets'
p15
NsS'xmx'
p16
I1024
sS'append'
p17
S'results/result.2012-10-16 00:40:44.dat'
p18
sS'errors'
p19
I00
sS'generations'
p20
I5
sbs.