(dp0
S'now'
p1
S'2012-11-08 10:25:52'
p2
sS'args'
p3
ccopy_reg
_reconstructor
p4
(cargparse
Namespace
p5
c__builtin__
object
p6
Ntp7
Rp8
(dp9
S'popstep'
p10
I5
sS'popmax'
p11
I101
sS'cont'
p12
NsS'splits'
p13
I10
sS'genstep'
p14
I2
sS'datasets'
p15
(lp16
S'vowel'
p17
asS'xmx'
p18
I4000
sS'append'
p19
NsS'errors'
p20
I00
sS'generations'
p21
I6
sbs.