(dp0
S'now'
p1
S'2012-10-17 00:04:01'
p2
sS'args'
p3
ccopy_reg
_reconstructor
p4
(cargparse
Namespace
p5
c__builtin__
object
p6
Ntp7
Rp8
(dp9
S'popstep'
p10
I2
sS'popmax'
p11
I101
sS'cont'
p12
NsS'splits'
p13
I10
sS'genstep'
p14
I20
sS'datasets'
p15
NsS'xmx'
p16
I1024
sS'errors'
p17
I00
sS'generations'
p18
I5
sbs.