(dp0
S'now'
p1
(S'2012-11-08 22:20:46'
p2
tp3
sS'args'
p4
ccopy_reg
_reconstructor
p5
(cargparse
Namespace
p6
c__builtin__
object
p7
Ntp8
Rp9
(dp10
S'popstep'
p11
I25
sS'popmax'
p12
I51
sS'cont'
p13
NsS'splits'
p14
I10
sS'genstep'
p15
I5
sS'datasets'
p16
(lp17
S'vowel'
p18
asS'xmx'
p19
I4000
sS'append'
p20
NsS'errors'
p21
I00
sS'generations'
p22
I6
sbs.