(dp0
S'now'
p1
S'2012-11-09 03:30:22'
p2
sS'args'
p3
ccopy_reg
_reconstructor
p4
(cargparse
Namespace
p5
c__builtin__
object
p6
Ntp7
Rp8
(dp9
S'popstep'
p10
I10
sS'popmax'
p11
I101
sS'cont'
p12
NsS'splits'
p13
I10
sS'genstep'
p14
I2
sS'datasets'
p15
(lp16
S'dna'
p17
aS'vowel'
p18
asS'xmx'
p19
I4000
sS'append'
p20
NsS'errors'
p21
I00
sS'generations'
p22
I5
sbs.